target datalayout = "e-m:e-p270:32:32-p271:32:32-p272:64:64-i64:64-i128:128-f80:128-n8:16:32:64-S128"
target triple = "x86_64-pc-linux-gnu"

@_ZL7indexes = internal constant [16 x i32] [i32 11918, i32 11918, i32 11918, i32 11918, i32 28084, i32 3, i32 34510, i32 34773, i32 36711, i32 36711, i32 20687, i32 49764913, i32 338, i32 0, i32 0, i32 0], align 16

; Function Attrs: mustprogress nounwind uwtable
define i32 @uprv_getMaxValues_77(i32 noundef %0) #0 {
  %2 = alloca i32, align 4
  %3 = alloca i32, align 4
  store i32 %0, ptr %3, align 4, !tbaa !3
  %4 = load i32, ptr %3, align 4, !tbaa !3
  switch i32 %4, label %14 [
    i32 0, label %5
    i32 2, label %7
    i32 12, label %9
  ]

5:                                                ; preds = %1
  %6 = load i32, ptr getelementptr inbounds nuw ([16 x i32], ptr @_ZL7indexes, i64 0, i64 10), align 8, !tbaa !3
  store i32 %6, ptr %2, align 4
  br label %15

7:                                                ; preds = %1
  %8 = load i32, ptr getelementptr inbounds nuw ([16 x i32], ptr @_ZL7indexes, i64 0, i64 11), align 4, !tbaa !3
  store i32 %8, ptr %2, align 4
  br label %15

9:                                                ; preds = %1
  %10 = load i32, ptr %3, align 4, !tbaa !3
  %11 = sext i32 %10 to i64
  %12 = getelementptr inbounds [16 x i32], ptr @_ZL7indexes, i64 0, i64 %11
  %13 = load i32, ptr %12, align 4, !tbaa !3
  store i32 %13, ptr %2, align 4
  br label %15

14:                                               ; preds = %1
  store i32 0, ptr %2, align 4
  br label %15

15:                                               ; preds = %14, %9, %7, %5
  %16 = load i32, ptr %2, align 4
  ret i32 %16
}