; Function Attrs: mustprogress nofree norecurse nosync nounwind willreturn memory(none) uwtable
define range(i32 0, 49764914) i32 @uprv_getMaxValues_77(i32 noundef %0) local_unnamed_addr #0 {
  switch i32 %0, label %4 [
    i32 0, label %5
    i32 2, label %2
    i32 12, label %3
  ]

2:                                                ; preds = %1
  br label %5

3:                                                ; preds = %1
  br label %5

4:                                                ; preds = %1
  br label %5

5:                                                ; preds = %1, %4, %3, %2
  %.0 = phi i32 [ 0, %4 ], [ 338, %3 ], [ 49764913, %2 ], [ 20687, %1 ]
  ret i32 %.0
}